; Function Attrs: nofree nounwind memory(read, inaccessiblemem: none) uwtable
define range(i32 0, 256) i32 @png_handle_as_unknown(ptr noalias noundef readonly %0, ptr noundef readonly %1) local_unnamed_addr #14 {
  %3 = icmp eq ptr %0, null
  %4 = icmp eq ptr %1, null
  %or.cond = or i1 %3, %4
  br i1 %or.cond, label %.loopexit, label %5

5:                                                ; preds = %2
  %6 = getelementptr inbounds i8, ptr %0, i64 964
  %7 = load i32, ptr %6, align 4
  %8 = icmp eq i32 %7, 0
  br i1 %8, label %.loopexit, label %9

9:                                                ; preds = %5
  %10 = getelementptr inbounds i8, ptr %0, i64 968
  %11 = load ptr, ptr %10, align 8
  %12 = mul i32 %7, 5
  %13 = zext i32 %12 to i64
  %14 = getelementptr inbounds i8, ptr %11, i64 %13
  br label %15

15:                                               ; preds = %22, %9
  %.013 = phi ptr [ %14, %9 ], [ %16, %22 ]
  %16 = getelementptr inbounds i8, ptr %.013, i64 -5
  %bcmp = tail call i32 @bcmp(ptr noundef nonnull dereferenceable(4) %1, ptr noundef nonnull dereferenceable(4) %16, i64 4)
  %17 = icmp eq i32 %bcmp, 0
  br i1 %17, label %18, label %22

18:                                               ; preds = %15
  %19 = getelementptr inbounds i8, ptr %.013, i64 -1
  %20 = load i8, ptr %19, align 1
  %21 = zext i8 %20 to i32
  br label %.loopexit

22:                                               ; preds = %15
  %23 = icmp ugt ptr %16, %11
  br i1 %23, label %15, label %.loopexit, !llvm.loop !13

.loopexit:                                        ; preds = %22, %2, %5, %18
  %.0 = phi i32 [ %21, %18 ], [ 0, %5 ], [ 0, %2 ], [ 0, %22 ]
  ret i32 %.0
}